target datalayout = "e-m:e-p270:32:32-p271:32:32-p272:64:64-i64:64-i128:128-f80:128-n8:16:32:64-S128"
target triple = "x86_64-pc-linux-gnu"

%"class.OpenSubdiv::v3_6_0::Bfr::FaceSurface" = type <{ ptr, ptr, %"class.OpenSubdiv::v3_6_0::Vtr::internal::StackBuffer.0", %"class.OpenSubdiv::v3_6_0::Bfr::MultiVertexTag", %"class.OpenSubdiv::v3_6_0::Sdc::Options", i8, i8 }>
%"class.OpenSubdiv::v3_6_0::Vtr::internal::StackBuffer.0" = type { ptr, i32, i32, [96 x i8], ptr }
%"class.OpenSubdiv::v3_6_0::Bfr::MultiVertexTag" = type { %"class.OpenSubdiv::v3_6_0::Bfr::FeatureBits" }
%"class.OpenSubdiv::v3_6_0::Bfr::FeatureBits" = type { i16 }
%"class.OpenSubdiv::v3_6_0::Sdc::Options" = type { i8, i8, i8, i8 }
%"class.OpenSubdiv::v3_6_0::Bfr::FaceTopology" = type { i32, %"class.OpenSubdiv::v3_6_0::Sdc::Options", i32, i32, i32, %"class.OpenSubdiv::v3_6_0::Bfr::MultiVertexTag", i8, %"class.OpenSubdiv::v3_6_0::Vtr::internal::StackBuffer" }
%"class.OpenSubdiv::v3_6_0::Vtr::internal::StackBuffer" = type { ptr, i32, i32, [896 x i8], ptr }

; Function Attrs: mustprogress nounwind uwtable
define linkonce_odr void @_ZN10OpenSubdiv6v3_6_03Sdc7Options22SetTriangleSubdivisionENS2_19TriangleSubdivisionE(ptr noundef nonnull align 1 dereferenceable(4) %0, i32 noundef %1) #1 comdat align 2 {
  %3 = alloca ptr, align 8
  %4 = alloca i32, align 4
  store ptr %0, ptr %3, align 8
  store i32 %1, ptr %4, align 4
  %5 = load ptr, ptr %3, align 8
  %6 = load i32, ptr %4, align 4
  %7 = trunc i32 %6 to i8
  %8 = getelementptr inbounds nuw %"class.OpenSubdiv::v3_6_0::Sdc::Options", ptr %5, i32 0, i32 3
  store i8 %7, ptr %8, align 1
  ret void
}

; Function Attrs: mustprogress nounwind uwtable
define linkonce_odr noundef zeroext i1 @_ZNK10OpenSubdiv6v3_6_03Bfr14MultiVertexTag21HasIrregularFaceSizesEv(ptr noundef nonnull align 2 dereferenceable(2) %0) #1 comdat align 2 {
  %2 = alloca ptr, align 8
  store ptr %0, ptr %2, align 8
  %3 = load ptr, ptr %2, align 8
  %4 = load i16, ptr %3, align 2
  %5 = lshr i16 %4, 7
  %6 = and i16 %5, 1
  %7 = icmp ne i16 %6, 0
  ret i1 %7
}

; Function Attrs: mustprogress nounwind uwtable
define linkonce_odr noundef i32 @_ZNK10OpenSubdiv6v3_6_03Bfr11FaceSurface12GetSdcSchemeEv(ptr noundef nonnull align 8 dereferenceable(143) %0) #1 comdat align 2 {
  %2 = alloca ptr, align 8
  store ptr %0, ptr %2, align 8
  %3 = load ptr, ptr %2, align 8
  %4 = getelementptr inbounds nuw %"class.OpenSubdiv::v3_6_0::Bfr::FaceSurface", ptr %3, i32 0, i32 0
  %5 = load ptr, ptr %4, align 8
  %6 = getelementptr inbounds nuw %"class.OpenSubdiv::v3_6_0::Bfr::FaceTopology", ptr %5, i32 0, i32 0
  %7 = load i32, ptr %6, align 8
  ret i32 %7
}

; Function Attrs: mustprogress nounwind uwtable
define linkonce_odr noundef i32 @_ZNK10OpenSubdiv6v3_6_03Sdc7Options22GetTriangleSubdivisionEv(ptr noundef nonnull align 1 dereferenceable(4) %0) #1 comdat align 2 {
  %2 = alloca ptr, align 8
  store ptr %0, ptr %2, align 8
  %3 = load ptr, ptr %2, align 8
  %4 = getelementptr inbounds nuw %"class.OpenSubdiv::v3_6_0::Sdc::Options", ptr %3, i32 0, i32 3
  %5 = load i8, ptr %4, align 1
  %6 = zext i8 %5 to i32
  ret i32 %6
}

; Function Attrs: mustprogress nounwind uwtable
define linkonce_odr void @_ZN10OpenSubdiv6v3_6_03Sdc7Options17SetCreasingMethodENS2_14CreasingMethodE(ptr noundef nonnull align 1 dereferenceable(4) %0, i32 noundef %1) #1 comdat align 2 {
  %3 = alloca ptr, align 8
  %4 = alloca i32, align 4
  store ptr %0, ptr %3, align 8
  store i32 %1, ptr %4, align 4
  %5 = load ptr, ptr %3, align 8
  %6 = load i32, ptr %4, align 4
  %7 = trunc i32 %6 to i8
  %8 = getelementptr inbounds nuw %"class.OpenSubdiv::v3_6_0::Sdc::Options", ptr %5, i32 0, i32 2
  store i8 %7, ptr %8, align 1
  ret void
}

; Function Attrs: mustprogress nounwind uwtable
define linkonce_odr noundef zeroext i1 @_ZNK10OpenSubdiv6v3_6_03Bfr14MultiVertexTag20HasSemiSharpVerticesEv(ptr noundef nonnull align 2 dereferenceable(2) %0) #1 comdat align 2 {
  %2 = alloca ptr, align 8
  store ptr %0, ptr %2, align 8
  %3 = load ptr, ptr %2, align 8
  %4 = load i16, ptr %3, align 2
  %5 = lshr i16 %4, 4
  %6 = and i16 %5, 1
  %7 = icmp ne i16 %6, 0
  ret i1 %7
}

; Function Attrs: mustprogress nounwind uwtable
define linkonce_odr noundef zeroext i1 @_ZNK10OpenSubdiv6v3_6_03Bfr14MultiVertexTag17HasSemiSharpEdgesEv(ptr noundef nonnull align 2 dereferenceable(2) %0) #1 comdat align 2 {
  %2 = alloca ptr, align 8
  store ptr %0, ptr %2, align 8
  %3 = load ptr, ptr %2, align 8
  %4 = load i16, ptr %3, align 2
  %5 = lshr i16 %4, 5
  %6 = and i16 %5, 1
  %7 = icmp ne i16 %6, 0
  ret i1 %7
}

; Function Attrs: mustprogress nounwind uwtable
define linkonce_odr noundef i32 @_ZNK10OpenSubdiv6v3_6_03Sdc7Options17GetCreasingMethodEv(ptr noundef nonnull align 1 dereferenceable(4) %0) #1 comdat align 2 {
  %2 = alloca ptr, align 8
  store ptr %0, ptr %2, align 8
  %3 = load ptr, ptr %2, align 8
  %4 = getelementptr inbounds nuw %"class.OpenSubdiv::v3_6_0::Sdc::Options", ptr %3, i32 0, i32 2
  %5 = load i8, ptr %4, align 1
  %6 = zext i8 %5 to i32
  ret i32 %6
}

; Function Attrs: mustprogress nounwind uwtable
define linkonce_odr void @_ZN10OpenSubdiv6v3_6_03Sdc7Options26SetFVarLinearInterpolationENS2_23FVarLinearInterpolationE(ptr noundef nonnull align 1 dereferenceable(4) %0, i32 noundef %1) #1 comdat align 2 {
  %3 = alloca ptr, align 8
  %4 = alloca i32, align 4
  store ptr %0, ptr %3, align 8
  store i32 %1, ptr %4, align 4
  %5 = load ptr, ptr %3, align 8
  %6 = load i32, ptr %4, align 4
  %7 = trunc i32 %6 to i8
  %8 = getelementptr inbounds nuw %"class.OpenSubdiv::v3_6_0::Sdc::Options", ptr %5, i32 0, i32 1
  store i8 %7, ptr %8, align 1
  ret void
}

; Function Attrs: mustprogress nounwind uwtable
define linkonce_odr void @_ZN10OpenSubdiv6v3_6_03Sdc7Options27SetVtxBoundaryInterpolationENS2_24VtxBoundaryInterpolationE(ptr noundef nonnull align 1 dereferenceable(4) %0, i32 noundef %1) #1 comdat align 2 {
  %3 = alloca ptr, align 8
  %4 = alloca i32, align 4
  store ptr %0, ptr %3, align 8
  store i32 %1, ptr %4, align 4
  %5 = load ptr, ptr %3, align 8
  %6 = load i32, ptr %4, align 4
  %7 = trunc i32 %6 to i8
  %8 = getelementptr inbounds nuw %"class.OpenSubdiv::v3_6_0::Sdc::Options", ptr %5, i32 0, i32 0
  store i8 %7, ptr %8, align 1
  ret void
}

; Function Attrs: mustprogress uwtable
define void @_ZN10OpenSubdiv6v3_6_03Bfr11FaceSurface24reviseSdcOptionsInEffectEv(ptr noundef nonnull align 8 dereferenceable(143) %0) #0 align 2 {
  %2 = alloca ptr, align 8
  %3 = alloca ptr, align 8
  %4 = alloca ptr, align 8
  store ptr %0, ptr %2, align 8
  %5 = load ptr, ptr %2, align 8
  %6 = getelementptr inbounds nuw %"class.OpenSubdiv::v3_6_0::Bfr::FaceSurface", ptr %5, i32 0, i32 3
  store ptr %6, ptr %3, align 8
  %7 = getelementptr inbounds nuw %"class.OpenSubdiv::v3_6_0::Bfr::FaceSurface", ptr %5, i32 0, i32 4
  store ptr %7, ptr %4, align 8
  %8 = load ptr, ptr %4, align 8
  call void @_ZN10OpenSubdiv6v3_6_03Sdc7Options27SetVtxBoundaryInterpolationENS2_24VtxBoundaryInterpolationE(ptr noundef nonnull align 1 dereferenceable(4) %8, i32 noundef 1)
  %9 = load ptr, ptr %4, align 8
  call void @_ZN10OpenSubdiv6v3_6_03Sdc7Options26SetFVarLinearInterpolationENS2_23FVarLinearInterpolationE(ptr noundef nonnull align 1 dereferenceable(4) %9, i32 noundef 5)
  %10 = load ptr, ptr %4, align 8
  %11 = call noundef i32 @_ZNK10OpenSubdiv6v3_6_03Sdc7Options17GetCreasingMethodEv(ptr noundef nonnull align 1 dereferenceable(4) %10)
  %12 = icmp ne i32 %11, 0
  br i1 %12, label %13, label %22

13:                                               ; preds = %1
  %14 = load ptr, ptr %3, align 8
  %15 = call noundef zeroext i1 @_ZNK10OpenSubdiv6v3_6_03Bfr14MultiVertexTag17HasSemiSharpEdgesEv(ptr noundef nonnull align 2 dereferenceable(2) %14)
  br i1 %15, label %21, label %16

16:                                               ; preds = %13
  %17 = load ptr, ptr %3, align 8
  %18 = call noundef zeroext i1 @_ZNK10OpenSubdiv6v3_6_03Bfr14MultiVertexTag20HasSemiSharpVerticesEv(ptr noundef nonnull align 2 dereferenceable(2) %17)
  br i1 %18, label %21, label %19

19:                                               ; preds = %16
  %20 = load ptr, ptr %4, align 8
  call void @_ZN10OpenSubdiv6v3_6_03Sdc7Options17SetCreasingMethodENS2_14CreasingMethodE(ptr noundef nonnull align 1 dereferenceable(4) %20, i32 noundef 0)
  br label %21

21:                                               ; preds = %19, %16, %13
  br label %22

22:                                               ; preds = %21, %1
  %23 = load ptr, ptr %4, align 8
  %24 = call noundef i32 @_ZNK10OpenSubdiv6v3_6_03Sdc7Options22GetTriangleSubdivisionEv(ptr noundef nonnull align 1 dereferenceable(4) %23)
  %25 = icmp ne i32 %24, 0
  br i1 %25, label %26, label %35

26:                                               ; preds = %22
  %27 = call noundef i32 @_ZNK10OpenSubdiv6v3_6_03Bfr11FaceSurface12GetSdcSchemeEv(ptr noundef nonnull align 8 dereferenceable(143) %5)
  %28 = icmp ne i32 %27, 1
  br i1 %28, label %32, label %29

29:                                               ; preds = %26
  %30 = load ptr, ptr %3, align 8
  %31 = call noundef zeroext i1 @_ZNK10OpenSubdiv6v3_6_03Bfr14MultiVertexTag21HasIrregularFaceSizesEv(ptr noundef nonnull align 2 dereferenceable(2) %30)
  br i1 %31, label %34, label %32

32:                                               ; preds = %29, %26
  %33 = load ptr, ptr %4, align 8
  call void @_ZN10OpenSubdiv6v3_6_03Sdc7Options22SetTriangleSubdivisionENS2_19TriangleSubdivisionE(ptr noundef nonnull align 1 dereferenceable(4) %33, i32 noundef 0)
  br label %34

34:                                               ; preds = %32, %29
  br label %35

35:                                               ; preds = %34, %22
  ret void
}

; Function Attrs: mustprogress nounwind uwtable
define linkonce_odr i32 @_ZNK10OpenSubdiv6v3_6_03Bfr11FaceSurface23GetSdcOptionsAsAssignedEv(ptr noundef nonnull align 8 dereferenceable(143) %0) #1 comdat align 2 {
  %2 = alloca %"class.OpenSubdiv::v3_6_0::Sdc::Options", align 1
  %3 = alloca ptr, align 8
  store ptr %0, ptr %3, align 8
  %4 = load ptr, ptr %3, align 8
  %5 = getelementptr inbounds nuw %"class.OpenSubdiv::v3_6_0::Bfr::FaceSurface", ptr %4, i32 0, i32 0
  %6 = load ptr, ptr %5, align 8
  %7 = getelementptr inbounds nuw %"class.OpenSubdiv::v3_6_0::Bfr::FaceTopology", ptr %6, i32 0, i32 1
  call void @llvm.memcpy.p0.p0.i64(ptr align 1 %2, ptr align 4 %7, i64 4, i1 false)
  %8 = load i32, ptr %2, align 1
  ret i32 %8
}

; Function Attrs: mustprogress uwtable
define void @_ZN10OpenSubdiv6v3_6_03Bfr11FaceSurface14postInitializeEv(ptr noundef nonnull align 8 dereferenceable(143) %0) #0 align 2 {
  %2 = alloca ptr, align 8
  %3 = alloca %"class.OpenSubdiv::v3_6_0::Sdc::Options", align 1
  store ptr %0, ptr %2, align 8
  %4 = load ptr, ptr %2, align 8
  %5 = call noundef zeroext i1 @_ZNK10OpenSubdiv6v3_6_03Bfr11FaceSurface9isRegularEv(ptr noundef nonnull align 8 dereferenceable(143) %4)
  %6 = zext i1 %5 to i32
  %7 = getelementptr inbounds nuw %"class.OpenSubdiv::v3_6_0::Bfr::FaceSurface", ptr %4, i32 0, i32 5
  %8 = trunc i32 %6 to i8
  %9 = load i8, ptr %7, align 2
  %10 = and i8 %8, 1
  %11 = shl i8 %10, 2
  %12 = and i8 %9, -5
  %13 = or i8 %12, %11
  store i8 %13, ptr %7, align 2
  %14 = call i32 @_ZNK10OpenSubdiv6v3_6_03Bfr11FaceSurface23GetSdcOptionsAsAssignedEv(ptr noundef nonnull align 8 dereferenceable(143) %4)
  store i32 %14, ptr %3, align 1
  %15 = getelementptr inbounds nuw %"class.OpenSubdiv::v3_6_0::Bfr::FaceSurface", ptr %4, i32 0, i32 4
  call void @llvm.memcpy.p0.p0.i64(ptr align 2 %15, ptr align 1 %3, i64 4, i1 false)
  %16 = getelementptr inbounds nuw %"class.OpenSubdiv::v3_6_0::Bfr::FaceSurface", ptr %4, i32 0, i32 5
  %17 = load i8, ptr %16, align 2
  %18 = lshr i8 %17, 2
  %19 = and i8 %18, 1
  %20 = zext i8 %19 to i32
  %21 = icmp ne i32 %20, 0
  br i1 %21, label %23, label %22

22:                                               ; preds = %1
  call void @_ZN10OpenSubdiv6v3_6_03Bfr11FaceSurface24reviseSdcOptionsInEffectEv(ptr noundef nonnull align 8 dereferenceable(143) %4)
  br label %23

23:                                               ; preds = %22, %1
  ret void
}