; Function Attrs: mustprogress nofree norecurse nosync nounwind willreturn memory(read, argmem: readwrite, inaccessiblemem: none) uwtable
define void @_ZN10OpenSubdiv6v3_6_03Bfr11FaceSurface14postInitializeEv(ptr nocapture noundef nonnull align 8 dereferenceable(143) %0) local_unnamed_addr #3 align 2 {
  %2 = tail call noundef zeroext i1 @_ZNK10OpenSubdiv6v3_6_03Bfr11FaceSurface9isRegularEv(ptr noundef nonnull align 8 dereferenceable(143) %0)
  %3 = getelementptr inbounds nuw i8, ptr %0, i64 142
  %4 = load i8, ptr %3, align 2
  %5 = select i1 %2, i8 4, i8 0
  %6 = and i8 %4, -5
  %7 = or disjoint i8 %6, %5
  store i8 %7, ptr %3, align 2
  %8 = load ptr, ptr %0, align 8
  %9 = getelementptr inbounds nuw i8, ptr %8, i64 4
  %.sroa.0.0.copyload.i = load i32, ptr %9, align 4
  %10 = getelementptr inbounds nuw i8, ptr %0, i64 138
  store i32 %.sroa.0.0.copyload.i, ptr %10, align 2
  br i1 %2, label %_ZN10OpenSubdiv6v3_6_03Bfr11FaceSurface24reviseSdcOptionsInEffectEv.exit, label %11

11:                                               ; preds = %1
  %12 = getelementptr inbounds nuw i8, ptr %0, i64 136
  store i8 1, ptr %10, align 2
  %13 = getelementptr inbounds i8, ptr %0, i64 139
  store i8 5, ptr %13, align 1
  %14 = getelementptr inbounds i8, ptr %0, i64 140
  %15 = and i32 %.sroa.0.0.copyload.i, 16711680
  %.not.i = icmp eq i32 %15, 0
  br i1 %.not.i, label %20, label %16

16:                                               ; preds = %11
  %17 = load i16, ptr %12, align 8
  %18 = and i16 %17, 48
  %or.cond.not.i = icmp eq i16 %18, 0
  br i1 %or.cond.not.i, label %19, label %20

19:                                               ; preds = %16
  store i8 0, ptr %14, align 4
  br label %20

20:                                               ; preds = %19, %16, %11
  %21 = getelementptr inbounds i8, ptr %0, i64 141
  %.not10.i = icmp ult i32 %.sroa.0.0.copyload.i, 16777216
  br i1 %.not10.i, label %_ZN10OpenSubdiv6v3_6_03Bfr11FaceSurface24reviseSdcOptionsInEffectEv.exit, label %22

22:                                               ; preds = %20
  %23 = load i32, ptr %8, align 8
  %.not11.i = icmp eq i32 %23, 1
  br i1 %.not11.i, label %24, label %27

24:                                               ; preds = %22
  %25 = load i16, ptr %12, align 8
  %26 = and i16 %25, 128
  %.not13.i = icmp eq i16 %26, 0
  br i1 %.not13.i, label %27, label %_ZN10OpenSubdiv6v3_6_03Bfr11FaceSurface24reviseSdcOptionsInEffectEv.exit

27:                                               ; preds = %24, %22
  store i8 0, ptr %21, align 1
  br label %_ZN10OpenSubdiv6v3_6_03Bfr11FaceSurface24reviseSdcOptionsInEffectEv.exit

_ZN10OpenSubdiv6v3_6_03Bfr11FaceSurface24reviseSdcOptionsInEffectEv.exit: ; preds = %27, %24, %20, %1
  ret void
}